; Function Attrs: mustprogress uwtable
define internal void @_ZL32tcp_server_shutdown_starting_addP15grpc_tcp_serverP12grpc_closure(ptr noundef %0, ptr noundef %1) #5 personality ptr @__gxx_personality_v0 {
  %3 = alloca %"class.absl::lts_20240722::Status", align 8
  %4 = alloca %"class.absl::lts_20240722::Status", align 8
  %5 = getelementptr inbounds nuw i8, ptr %0, i64 24
  tail call void @gpr_mu_lock(ptr noundef nonnull %5)
  %6 = getelementptr inbounds nuw i8, ptr %0, i64 80
  store i64 1, ptr %4, align 8, !tbaa !121, !alias.scope !224
  call void @llvm.lifetime.start.p0(i64 8, ptr nonnull %3)
  %7 = icmp eq ptr %1, null
  br i1 %7, label %_ZN4absl12lts_202407226StatusD2Ev.exit, label %_ZN4absl12lts_202407226StatusC2ERKS1_.exit.i

_ZN4absl12lts_202407226StatusC2ERKS1_.exit.i:     ; preds = %2
  store i64 1, ptr %3, align 8, !tbaa !121
  %8 = invoke noundef i64 @_ZN9grpc_core8internal18StatusAllocHeapPtrEN4absl12lts_202407226StatusE(ptr noundef nonnull %3)
          to label %9 unwind label %.body

9:                                                ; preds = %_ZN4absl12lts_202407226StatusC2ERKS1_.exit.i
  %10 = getelementptr inbounds nuw i8, ptr %1, i64 24
  store i64 %8, ptr %10, align 8, !tbaa !10
  %11 = load i64, ptr %3, align 8, !tbaa !121
  %12 = and i64 %11, 1
  %.not.i.i7.i = icmp eq i64 %12, 0
  br i1 %.not.i.i7.i, label %13, label %_ZN4absl12lts_202407226StatusD2Ev.exit.i

13:                                               ; preds = %9
  %14 = inttoptr i64 %11 to ptr
  invoke void @_ZNK4absl12lts_2024072215status_internal9StatusRep5UnrefEv(ptr noundef nonnull align 8 dereferenceable(48) %14)
          to label %_ZN4absl12lts_202407226StatusD2Ev.exit.i unwind label %15

15:                                               ; preds = %13
  %16 = landingpad { ptr, i32 }
          catch ptr null
  %17 = extractvalue { ptr, i32 } %16, 0
  call void @__clang_call_terminate(ptr %17) #37
  unreachable

_ZN4absl12lts_202407226StatusD2Ev.exit.i:         ; preds = %13, %9
  store ptr null, ptr %1, align 8, !tbaa !10
  %18 = load ptr, ptr %6, align 8, !tbaa !227
  %19 = icmp eq ptr %18, null
  br i1 %19, label %_Z24grpc_closure_list_appendP17grpc_closure_listP12grpc_closure.exit.i, label %20

20:                                               ; preds = %_ZN4absl12lts_202407226StatusD2Ev.exit.i
  %21 = getelementptr inbounds nuw i8, ptr %0, i64 88
  %22 = load ptr, ptr %21, align 8, !tbaa !228
  br label %_Z24grpc_closure_list_appendP17grpc_closure_listP12grpc_closure.exit.i

_Z24grpc_closure_list_appendP17grpc_closure_listP12grpc_closure.exit.i: ; preds = %20, %_ZN4absl12lts_202407226StatusD2Ev.exit.i
  %.sink.i.i = phi ptr [ %22, %20 ], [ %6, %_ZN4absl12lts_202407226StatusD2Ev.exit.i ]
  store ptr %1, ptr %.sink.i.i, align 8, !tbaa !10
  %23 = getelementptr inbounds nuw i8, ptr %0, i64 88
  store ptr %1, ptr %23, align 8, !tbaa !228
  br label %_ZN4absl12lts_202407226StatusD2Ev.exit

.body:                                            ; preds = %_ZN4absl12lts_202407226StatusC2ERKS1_.exit.i
  %24 = landingpad { ptr, i32 }
          cleanup
  call void @_ZN4absl12lts_202407226StatusD2Ev(ptr noundef nonnull align 8 dereferenceable(8) %3) #36
  call void @_ZN4absl12lts_202407226StatusD2Ev(ptr noundef nonnull align 8 dereferenceable(8) %4) #36
  resume { ptr, i32 } %24

_ZN4absl12lts_202407226StatusD2Ev.exit:           ; preds = %2, %_Z24grpc_closure_list_appendP17grpc_closure_listP12grpc_closure.exit.i
  call void @llvm.lifetime.end.p0(i64 8, ptr nonnull %3)
  call void @gpr_mu_unlock(ptr noundef nonnull %5)
  ret void
}